; Function Attrs: mustprogress uwtable
define void @_ZN3net25QuicReceivedPacketManager14EntropyTrackerC2Ev(ptr noundef nonnull align 8 dereferenceable(104) initializes((0, 80)) %0) unnamed_addr #0 align 2 personality ptr @__gxx_personality_v0 {
  tail call void @llvm.memset.p0.i64(ptr noundef nonnull align 8 dereferenceable(80) %0, i8 0, i64 80, i1 false)
  tail call void @_ZNSt11_Deque_baseISt4pairIhbESaIS1_EE17_M_initialize_mapEm(ptr noundef nonnull align 8 dereferenceable(80) %0, i64 noundef 0)
  %2 = getelementptr inbounds nuw i8, ptr %0, i64 80
  store i8 0, ptr %2, align 8, !tbaa !3
  %3 = getelementptr inbounds nuw i8, ptr %0, i64 88
  store i64 1, ptr %3, align 8, !tbaa !16
  %4 = getelementptr inbounds nuw i8, ptr %0, i64 96
  store i64 0, ptr %4, align 8, !tbaa !17
  ret void
}